target datalayout = "e-m:e-p270:32:32-p271:32:32-p272:64:64-i64:64-i128:128-f80:128-n8:16:32:64-S128"
target triple = "x86_64-pc-linux-gnu"

%"class.zmq::msg_t" = type { %union.anon }
%union.anon = type { %struct.anon }
%struct.anon = type { ptr, [34 x i8], i8, i8, i32, %"union.zmq::msg_t::group_t" }
%"union.zmq::msg_t::group_t" = type { %struct.anon.1 }
%struct.anon.1 = type { i8, ptr }
%struct.anon.2 = type { ptr, [33 x i8], i8, i8, i8, i32, %"union.zmq::msg_t::group_t" }
%struct.anon.3 = type { ptr, ptr, [26 x i8], i8, i8, i32, %"union.zmq::msg_t::group_t" }
%"struct.zmq::msg_t::content_t" = type { ptr, i64, ptr, ptr, %"class.zmq::atomic_counter_t" }
%"class.zmq::atomic_counter_t" = type { %"struct.std::atomic", [4 x i8] }
%"struct.std::atomic" = type { %"struct.std::__atomic_base" }
%"struct.std::__atomic_base" = type { i32 }
%struct.anon.5 = type { ptr, ptr, i64, [18 x i8], i8, i8, i32, %"union.zmq::msg_t::group_t" }
%struct.anon.4 = type { ptr, ptr, [26 x i8], i8, i8, i32, %"union.zmq::msg_t::group_t" }

@stderr = external global ptr, align 8
@.str = private unnamed_addr constant [30 x i8] c"Assertion failed: %s (%s:%d)\0A\00", align 1
@.str.2 = private unnamed_addr constant [103 x i8] c"generated/home/dtcxzyw/WorkSpace/Projects/compilers/llvm-opt-benchmark/bench/libzmq/libzmq/src/msg.cpp\00", align 1
@.str.6 = private unnamed_addr constant [9 x i8] c"check ()\00", align 1
@.str.7 = private unnamed_addr constant [6 x i8] c"false\00", align 1
@.str.8 = private unnamed_addr constant [21 x i8] c"new_size_ <= size ()\00", align 1

; Function Attrs: mustprogress nounwind uwtable
define noundef zeroext i1 @_ZNK3zmq5msg_t5checkEv(ptr noundef nonnull align 8 dereferenceable(64) %0) #0 align 2 {
  %2 = alloca ptr, align 8
  store ptr %0, ptr %2, align 8, !tbaa !3
  %3 = load ptr, ptr %2, align 8
  %4 = getelementptr inbounds nuw %"class.zmq::msg_t", ptr %3, i32 0, i32 0
  %5 = getelementptr inbounds nuw %struct.anon, ptr %4, i32 0, i32 2
  %6 = load i8, ptr %5, align 2, !tbaa !8
  %7 = zext i8 %6 to i32
  %8 = icmp sge i32 %7, 101
  br i1 %8, label %9, label %15

9:                                                ; preds = %1
  %10 = getelementptr inbounds nuw %"class.zmq::msg_t", ptr %3, i32 0, i32 0
  %11 = getelementptr inbounds nuw %struct.anon, ptr %10, i32 0, i32 2
  %12 = load i8, ptr %11, align 2, !tbaa !8
  %13 = zext i8 %12 to i32
  %14 = icmp sle i32 %13, 107
  br label %15

15:                                               ; preds = %9, %1
  %16 = phi i1 [ false, %1 ], [ %14, %9 ]
  ret i1 %16
}

; Function Attrs: mustprogress uwtable
define void @_ZN3zmq5msg_t6shrinkEm(ptr noundef nonnull align 8 dereferenceable(64) %0, i64 noundef %1) #1 align 2 {
  %3 = alloca ptr, align 8
  %4 = alloca i64, align 8
  store ptr %0, ptr %3, align 8, !tbaa !3
  store i64 %1, ptr %4, align 8, !tbaa !10
  %5 = load ptr, ptr %3, align 8
  br label %6

6:                                                ; preds = %2
  %7 = call noundef zeroext i1 @_ZNK3zmq5msg_t5checkEv(ptr noundef nonnull align 8 dereferenceable(64) %5)
  %8 = xor i1 %7, true
  %9 = zext i1 %8 to i64
  %10 = call i64 @llvm.expect.i64(i64 %9, i64 0)
  %11 = icmp ne i64 %10, 0
  br i1 %11, label %12, label %17

12:                                               ; preds = %6
  %13 = load ptr, ptr @stderr, align 8, !tbaa !24
  %14 = call i32 (ptr, ptr, ...) @fprintf(ptr noundef %13, ptr noundef @.str, ptr noundef @.str.6, ptr noundef @.str.2, i32 noundef 407) #14
  %15 = load ptr, ptr @stderr, align 8, !tbaa !24
  %16 = call i32 @fflush(ptr noundef %15)
  call void @_ZN3zmq9zmq_abortEPKc(ptr noundef @.str.6)
  br label %17

17:                                               ; preds = %12, %6
  br label %18

18:                                               ; preds = %17
  br label %19

19:                                               ; preds = %18
  %20 = load i64, ptr %4, align 8, !tbaa !10
  %21 = call noundef i64 @_ZNK3zmq5msg_t4sizeEv(ptr noundef nonnull align 8 dereferenceable(64) %5)
  %22 = icmp ule i64 %20, %21
  %23 = xor i1 %22, true
  %24 = zext i1 %23 to i64
  %25 = call i64 @llvm.expect.i64(i64 %24, i64 0)
  %26 = icmp ne i64 %25, 0
  br i1 %26, label %27, label %32

27:                                               ; preds = %19
  %28 = load ptr, ptr @stderr, align 8, !tbaa !24
  %29 = call i32 (ptr, ptr, ...) @fprintf(ptr noundef %28, ptr noundef @.str, ptr noundef @.str.8, ptr noundef @.str.2, i32 noundef 408) #14
  %30 = load ptr, ptr @stderr, align 8, !tbaa !24
  %31 = call i32 @fflush(ptr noundef %30)
  call void @_ZN3zmq9zmq_abortEPKc(ptr noundef @.str.8)
  br label %32

32:                                               ; preds = %27, %19
  br label %33

33:                                               ; preds = %32
  %34 = getelementptr inbounds nuw %"class.zmq::msg_t", ptr %5, i32 0, i32 0
  %35 = getelementptr inbounds nuw %struct.anon, ptr %34, i32 0, i32 2
  %36 = load i8, ptr %35, align 2, !tbaa !8
  %37 = zext i8 %36 to i32
  switch i32 %37, label %59 [
    i32 101, label %38
    i32 102, label %43
    i32 105, label %49
    i32 104, label %55
  ]

38:                                               ; preds = %33
  %39 = load i64, ptr %4, align 8, !tbaa !10
  %40 = trunc i64 %39 to i8
  %41 = getelementptr inbounds nuw %"class.zmq::msg_t", ptr %5, i32 0, i32 0
  %42 = getelementptr inbounds nuw %struct.anon.2, ptr %41, i32 0, i32 2
  store i8 %40, ptr %42, align 1, !tbaa !8
  br label %66

43:                                               ; preds = %33
  %44 = load i64, ptr %4, align 8, !tbaa !10
  %45 = getelementptr inbounds nuw %"class.zmq::msg_t", ptr %5, i32 0, i32 0
  %46 = getelementptr inbounds nuw %struct.anon.3, ptr %45, i32 0, i32 1
  %47 = load ptr, ptr %46, align 8, !tbaa !8
  %48 = getelementptr inbounds nuw %"struct.zmq::msg_t::content_t", ptr %47, i32 0, i32 1
  store i64 %44, ptr %48, align 8, !tbaa !21
  br label %66

49:                                               ; preds = %33
  %50 = load i64, ptr %4, align 8, !tbaa !10
  %51 = getelementptr inbounds nuw %"class.zmq::msg_t", ptr %5, i32 0, i32 0
  %52 = getelementptr inbounds nuw %struct.anon.4, ptr %51, i32 0, i32 1
  %53 = load ptr, ptr %52, align 8, !tbaa !8
  %54 = getelementptr inbounds nuw %"struct.zmq::msg_t::content_t", ptr %53, i32 0, i32 1
  store i64 %50, ptr %54, align 8, !tbaa !21
  br label %66

55:                                               ; preds = %33
  %56 = load i64, ptr %4, align 8, !tbaa !10
  %57 = getelementptr inbounds nuw %"class.zmq::msg_t", ptr %5, i32 0, i32 0
  %58 = getelementptr inbounds nuw %struct.anon.5, ptr %57, i32 0, i32 2
  store i64 %56, ptr %58, align 8, !tbaa !8
  br label %66

59:                                               ; preds = %33
  br label %60

60:                                               ; preds = %59
  %61 = load ptr, ptr @stderr, align 8, !tbaa !24
  %62 = call i32 (ptr, ptr, ...) @fprintf(ptr noundef %61, ptr noundef @.str, ptr noundef @.str.7, ptr noundef @.str.2, i32 noundef 424) #14
  %63 = load ptr, ptr @stderr, align 8, !tbaa !24
  %64 = call i32 @fflush(ptr noundef %63)
  call void @_ZN3zmq9zmq_abortEPKc(ptr noundef @.str.7)
  br label %65

65:                                               ; preds = %60
  br label %66

66:                                               ; preds = %65, %55, %49, %43, %38
  ret void
}