; Function Attrs: mustprogress uwtable
define void @_ZN3zmq5msg_t6shrinkEm(ptr noundef nonnull align 8 captures(none) dereferenceable(64) %0, i64 noundef %1) local_unnamed_addr #1 align 2 {
  %3 = getelementptr inbounds nuw i8, ptr %0, i64 42
  %4 = load i8, ptr %3, align 2, !tbaa !3
  %5 = add i8 %4, -101
  %spec.select.i = icmp ult i8 %5, 7
  br i1 %spec.select.i, label %11, label %6, !prof !23

6:                                                ; preds = %2
  %7 = load ptr, ptr @stderr, align 8, !tbaa !7
  %8 = tail call i32 (ptr, ptr, ...) @fprintf(ptr noundef %7, ptr noundef nonnull @.str, ptr noundef nonnull @.str.6, ptr noundef nonnull @.str.2, i32 noundef 407) #20
  %9 = load ptr, ptr @stderr, align 8, !tbaa !7
  %10 = tail call i32 @fflush(ptr noundef %9)
  tail call void @_ZN3zmq9zmq_abortEPKc(ptr noundef nonnull @.str.6)
  br label %11

11:                                               ; preds = %6, %2
  %12 = tail call noundef i64 @_ZNK3zmq5msg_t4sizeEv(ptr noundef nonnull align 8 dereferenceable(64) %0)
  %.not = icmp ugt i64 %1, %12
  br i1 %.not, label %13, label %18, !prof !6

13:                                               ; preds = %11
  %14 = load ptr, ptr @stderr, align 8, !tbaa !7
  %15 = tail call i32 (ptr, ptr, ...) @fprintf(ptr noundef %14, ptr noundef nonnull @.str, ptr noundef nonnull @.str.8, ptr noundef nonnull @.str.2, i32 noundef 408) #20
  %16 = load ptr, ptr @stderr, align 8, !tbaa !7
  %17 = tail call i32 @fflush(ptr noundef %16)
  tail call void @_ZN3zmq9zmq_abortEPKc(ptr noundef nonnull @.str.8)
  br label %18

18:                                               ; preds = %11, %13
  %19 = load i8, ptr %3, align 2, !tbaa !3
  switch i8 %19, label %33 [
    i8 101, label %20
    i8 102, label %23
    i8 105, label %27
    i8 104, label %31
  ]

20:                                               ; preds = %18
  %21 = trunc i64 %1 to i8
  %22 = getelementptr inbounds nuw i8, ptr %0, i64 41
  store i8 %21, ptr %22, align 1, !tbaa !3
  br label %38

23:                                               ; preds = %18
  %24 = getelementptr inbounds nuw i8, ptr %0, i64 8
  %25 = load ptr, ptr %24, align 8, !tbaa !3
  %26 = getelementptr inbounds nuw i8, ptr %25, i64 8
  store i64 %1, ptr %26, align 8, !tbaa !17
  br label %38

27:                                               ; preds = %18
  %28 = getelementptr inbounds nuw i8, ptr %0, i64 8
  %29 = load ptr, ptr %28, align 8, !tbaa !3
  %30 = getelementptr inbounds nuw i8, ptr %29, i64 8
  store i64 %1, ptr %30, align 8, !tbaa !17
  br label %38

31:                                               ; preds = %18
  %32 = getelementptr inbounds nuw i8, ptr %0, i64 16
  store i64 %1, ptr %32, align 8, !tbaa !3
  br label %38

33:                                               ; preds = %18
  %34 = load ptr, ptr @stderr, align 8, !tbaa !7
  %35 = tail call i32 (ptr, ptr, ...) @fprintf(ptr noundef %34, ptr noundef nonnull @.str, ptr noundef nonnull @.str.7, ptr noundef nonnull @.str.2, i32 noundef 424) #20
  %36 = load ptr, ptr @stderr, align 8, !tbaa !7
  %37 = tail call i32 @fflush(ptr noundef %36)
  tail call void @_ZN3zmq9zmq_abortEPKc(ptr noundef nonnull @.str.7)
  br label %38

38:                                               ; preds = %33, %31, %27, %23, %20
  ret void
}